target datalayout = "e-m:e-p270:32:32-p271:32:32-p272:64:64-i64:64-i128:128-f80:128-n8:16:32:64-S128"
target triple = "x86_64-pc-linux-gnu"

%struct.pa_sample_spec = type { i32, i32, i8 }
%struct.PaPulseAudio_Stream = type { %struct.PaUtilStreamRepresentation, %struct.PaUtilCpuLoadMeasurer, %struct.PaUtilBufferProcessor, ptr, i64, ptr, ptr, %struct.pa_sample_spec, %struct.pa_sample_spec, ptr, ptr, %struct.pa_buffer_attr, %struct.pa_buffer_attr, i32, i32, i32, i32, i64, i64, i32, i32, i32, i32, ptr, ptr, %struct.PaUtilRingBuffer, i64, i32, i32, i32, i32 }
%struct.PaUtilStreamRepresentation = type { i64, ptr, ptr, ptr, ptr, ptr, %struct.PaStreamInfo }
%struct.PaStreamInfo = type { i32, double, double, double }
%struct.PaUtilCpuLoadMeasurer = type { double, double, double }
%struct.PaUtilBufferProcessor = type { i64, i64, i32, i32, i32, i32, i64, i32, i32, i32, i32, ptr, ptr, i32, i32, i32, i32, ptr, ptr, i64, i64, ptr, ptr, i64, ptr, ptr, i64, ptr, i64, i32, [2 x i64], [2 x ptr], i32, [2 x i64], [2 x ptr], %struct.PaUtilTriangularDitherGenerator, double, ptr, ptr }
%struct.PaUtilTriangularDitherGenerator = type { i32, i32, i32 }
%struct.pa_buffer_attr = type { i32, i32, i32, i32, i32 }
%struct.PaUtilRingBuffer = type { i64, i64, i64, i64, i64, i64, ptr }

; Function Attrs: nounwind uwtable
define void @PaPulseAudio_UnLock(ptr noundef %0) #0 {
  %2 = alloca ptr, align 8
  store ptr %0, ptr %2, align 8, !tbaa !39
  %3 = load ptr, ptr %2, align 8, !tbaa !39
  %4 = call i32 @pa_threaded_mainloop_in_thread(ptr noundef %3)
  %5 = icmp ne i32 %4, 0
  br i1 %5, label %8, label %6

6:                                                ; preds = %1
  %7 = load ptr, ptr %2, align 8, !tbaa !39
  call void @pa_threaded_mainloop_unlock(ptr noundef %7)
  br label %9

8:                                                ; preds = %1
  br label %9

9:                                                ; preds = %8, %6
  ret void
}

; Function Attrs: nounwind uwtable
define void @PaPulseAudio_Lock(ptr noundef %0) #0 {
  %2 = alloca ptr, align 8
  store ptr %0, ptr %2, align 8, !tbaa !39
  %3 = load ptr, ptr %2, align 8, !tbaa !39
  %4 = call i32 @pa_threaded_mainloop_in_thread(ptr noundef %3)
  %5 = icmp ne i32 %4, 0
  br i1 %5, label %8, label %6

6:                                                ; preds = %1
  %7 = load ptr, ptr %2, align 8, !tbaa !39
  call void @pa_threaded_mainloop_lock(ptr noundef %7)
  br label %9

8:                                                ; preds = %1
  br label %9

9:                                                ; preds = %8, %6
  ret void
}

; Function Attrs: inlinehint nounwind uwtable
define internal i32 @PA_STREAM_IS_GOOD(i32 noundef %0) #3 {
  %2 = alloca i32, align 4
  store i32 %0, ptr %2, align 4, !tbaa !10
  %3 = load i32, ptr %2, align 4, !tbaa !10
  %4 = icmp eq i32 %3, 1
  br i1 %4, label %8, label %5

5:                                                ; preds = %1
  %6 = load i32, ptr %2, align 4, !tbaa !10
  %7 = icmp eq i32 %6, 2
  br label %8

8:                                                ; preds = %5, %1
  %9 = phi i1 [ true, %1 ], [ %7, %5 ]
  %10 = zext i1 %9 to i32
  ret i32 %10
}

; Function Attrs: nounwind uwtable
define i32 @PaPulseAudio_CloseStreamCb(ptr noundef %0) #0 {
  %2 = alloca ptr, align 8
  %3 = alloca i32, align 4
  %4 = alloca ptr, align 8
  %5 = alloca ptr, align 8
  %6 = alloca ptr, align 8
  %7 = alloca i32, align 4
  %8 = alloca i32, align 4
  store ptr %0, ptr %2, align 8, !tbaa !19
  call void @llvm.lifetime.start.p0(i64 4, ptr %3) #6
  store i32 0, ptr %3, align 4, !tbaa !10
  call void @llvm.lifetime.start.p0(i64 8, ptr %4) #6
  %9 = load ptr, ptr %2, align 8, !tbaa !19
  store ptr %9, ptr %4, align 8, !tbaa !42
  call void @llvm.lifetime.start.p0(i64 8, ptr %5) #6
  %10 = load ptr, ptr %4, align 8, !tbaa !42
  %11 = getelementptr inbounds nuw %struct.PaPulseAudio_Stream, ptr %10, i32 0, i32 3
  %12 = load ptr, ptr %11, align 8, !tbaa !69
  store ptr %12, ptr %5, align 8, !tbaa !19
  call void @llvm.lifetime.start.p0(i64 8, ptr %6) #6
  store ptr null, ptr %6, align 8, !tbaa !22
  call void @llvm.lifetime.start.p0(i64 4, ptr %7) #6
  store i32 0, ptr %7, align 4, !tbaa !10
  call void @llvm.lifetime.start.p0(i64 4, ptr %8) #6
  store i32 0, ptr %8, align 4, !tbaa !10
  %13 = load ptr, ptr %4, align 8, !tbaa !42
  %14 = getelementptr inbounds nuw %struct.PaPulseAudio_Stream, ptr %13, i32 0, i32 27
  store volatile i32 0, ptr %14, align 8, !tbaa !63
  %15 = load ptr, ptr %4, align 8, !tbaa !42
  %16 = getelementptr inbounds nuw %struct.PaPulseAudio_Stream, ptr %15, i32 0, i32 28
  store volatile i32 1, ptr %16, align 4, !tbaa !66
  %17 = load ptr, ptr %4, align 8, !tbaa !42
  %18 = getelementptr inbounds nuw %struct.PaPulseAudio_Stream, ptr %17, i32 0, i32 29
  store volatile i32 0, ptr %18, align 8, !tbaa !64
  %19 = load ptr, ptr %4, align 8, !tbaa !42
  %20 = getelementptr inbounds nuw %struct.PaPulseAudio_Stream, ptr %19, i32 0, i32 30
  store volatile i32 1, ptr %20, align 4, !tbaa !70
  %21 = load ptr, ptr %4, align 8, !tbaa !42
  %22 = getelementptr inbounds nuw %struct.PaPulseAudio_Stream, ptr %21, i32 0, i32 9
  %23 = load ptr, ptr %22, align 8, !tbaa !58
  %24 = icmp ne ptr %23, null
  br i1 %24, label %25, label %55

25:                                               ; preds = %1
  %26 = load ptr, ptr %4, align 8, !tbaa !42
  %27 = getelementptr inbounds nuw %struct.PaPulseAudio_Stream, ptr %26, i32 0, i32 9
  %28 = load ptr, ptr %27, align 8, !tbaa !58
  %29 = call i32 @pa_stream_get_state(ptr noundef %28)
  %30 = call i32 @PA_STREAM_IS_GOOD(i32 noundef %29)
  %31 = icmp ne i32 %30, 0
  br i1 %31, label %32, label %55

32:                                               ; preds = %25
  %33 = load ptr, ptr %4, align 8, !tbaa !42
  %34 = getelementptr inbounds nuw %struct.PaPulseAudio_Stream, ptr %33, i32 0, i32 5
  %35 = load ptr, ptr %34, align 8, !tbaa !55
  call void @PaPulseAudio_Lock(ptr noundef %35)
  %36 = load ptr, ptr %4, align 8, !tbaa !42
  %37 = getelementptr inbounds nuw %struct.PaPulseAudio_Stream, ptr %36, i32 0, i32 9
  %38 = load ptr, ptr %37, align 8, !tbaa !58
  %39 = load ptr, ptr %4, align 8, !tbaa !42
  %40 = call ptr @pa_stream_cork(ptr noundef %38, i32 noundef 1, ptr noundef @PaPulseAudio_CorkSuccessCb, ptr noundef %39)
  store ptr %40, ptr %6, align 8, !tbaa !22
  %41 = load ptr, ptr %4, align 8, !tbaa !42
  %42 = getelementptr inbounds nuw %struct.PaPulseAudio_Stream, ptr %41, i32 0, i32 5
  %43 = load ptr, ptr %42, align 8, !tbaa !55
  call void @PaPulseAudio_UnLock(ptr noundef %43)
  %44 = load ptr, ptr %5, align 8, !tbaa !19
  call void @PaPulseAudio_ReleaseOperation(ptr noundef %44, ptr noundef %6)
  %45 = load ptr, ptr %4, align 8, !tbaa !42
  %46 = getelementptr inbounds nuw %struct.PaPulseAudio_Stream, ptr %45, i32 0, i32 5
  %47 = load ptr, ptr %46, align 8, !tbaa !55
  call void @PaPulseAudio_Lock(ptr noundef %47)
  %48 = load ptr, ptr %4, align 8, !tbaa !42
  %49 = getelementptr inbounds nuw %struct.PaPulseAudio_Stream, ptr %48, i32 0, i32 9
  %50 = load ptr, ptr %49, align 8, !tbaa !58
  %51 = call i32 @pa_stream_disconnect(ptr noundef %50)
  %52 = load ptr, ptr %4, align 8, !tbaa !42
  %53 = getelementptr inbounds nuw %struct.PaPulseAudio_Stream, ptr %52, i32 0, i32 5
  %54 = load ptr, ptr %53, align 8, !tbaa !55
  call void @PaPulseAudio_UnLock(ptr noundef %54)
  br label %55

55:                                               ; preds = %32, %25, %1
  %56 = load ptr, ptr %4, align 8, !tbaa !42
  %57 = getelementptr inbounds nuw %struct.PaPulseAudio_Stream, ptr %56, i32 0, i32 10
  %58 = load ptr, ptr %57, align 8, !tbaa !44
  %59 = icmp ne ptr %58, null
  br i1 %59, label %60, label %90

60:                                               ; preds = %55
  %61 = load ptr, ptr %4, align 8, !tbaa !42
  %62 = getelementptr inbounds nuw %struct.PaPulseAudio_Stream, ptr %61, i32 0, i32 10
  %63 = load ptr, ptr %62, align 8, !tbaa !44
  %64 = call i32 @pa_stream_get_state(ptr noundef %63)
  %65 = call i32 @PA_STREAM_IS_GOOD(i32 noundef %64)
  %66 = icmp ne i32 %65, 0
  br i1 %66, label %67, label %90

67:                                               ; preds = %60
  %68 = load ptr, ptr %4, align 8, !tbaa !42
  %69 = getelementptr inbounds nuw %struct.PaPulseAudio_Stream, ptr %68, i32 0, i32 5
  %70 = load ptr, ptr %69, align 8, !tbaa !55
  call void @PaPulseAudio_Lock(ptr noundef %70)
  %71 = load ptr, ptr %4, align 8, !tbaa !42
  %72 = getelementptr inbounds nuw %struct.PaPulseAudio_Stream, ptr %71, i32 0, i32 10
  %73 = load ptr, ptr %72, align 8, !tbaa !44
  %74 = load ptr, ptr %4, align 8, !tbaa !42
  %75 = call ptr @pa_stream_cork(ptr noundef %73, i32 noundef 1, ptr noundef @PaPulseAudio_CorkSuccessCb, ptr noundef %74)
  store ptr %75, ptr %6, align 8, !tbaa !22
  %76 = load ptr, ptr %4, align 8, !tbaa !42
  %77 = getelementptr inbounds nuw %struct.PaPulseAudio_Stream, ptr %76, i32 0, i32 5
  %78 = load ptr, ptr %77, align 8, !tbaa !55
  call void @PaPulseAudio_UnLock(ptr noundef %78)
  %79 = load ptr, ptr %5, align 8, !tbaa !19
  call void @PaPulseAudio_ReleaseOperation(ptr noundef %79, ptr noundef %6)
  %80 = load ptr, ptr %4, align 8, !tbaa !42
  %81 = getelementptr inbounds nuw %struct.PaPulseAudio_Stream, ptr %80, i32 0, i32 5
  %82 = load ptr, ptr %81, align 8, !tbaa !55
  call void @PaPulseAudio_Lock(ptr noundef %82)
  %83 = load ptr, ptr %4, align 8, !tbaa !42
  %84 = getelementptr inbounds nuw %struct.PaPulseAudio_Stream, ptr %83, i32 0, i32 10
  %85 = load ptr, ptr %84, align 8, !tbaa !44
  %86 = call i32 @pa_stream_disconnect(ptr noundef %85)
  %87 = load ptr, ptr %4, align 8, !tbaa !42
  %88 = getelementptr inbounds nuw %struct.PaPulseAudio_Stream, ptr %87, i32 0, i32 5
  %89 = load ptr, ptr %88, align 8, !tbaa !55
  call void @PaPulseAudio_UnLock(ptr noundef %89)
  br label %90

90:                                               ; preds = %67, %60, %55
  br label %91

91:                                               ; preds = %157, %90
  %92 = load i32, ptr %7, align 4, !tbaa !10
  %93 = icmp ne i32 %92, 0
  %94 = xor i1 %93, true
  br i1 %94, label %95, label %161

95:                                               ; preds = %91
  %96 = load ptr, ptr %4, align 8, !tbaa !42
  %97 = getelementptr inbounds nuw %struct.PaPulseAudio_Stream, ptr %96, i32 0, i32 5
  %98 = load ptr, ptr %97, align 8, !tbaa !55
  call void @PaPulseAudio_Lock(ptr noundef %98)
  %99 = load ptr, ptr %4, align 8, !tbaa !42
  %100 = getelementptr inbounds nuw %struct.PaPulseAudio_Stream, ptr %99, i32 0, i32 10
  %101 = load ptr, ptr %100, align 8, !tbaa !44
  %102 = icmp ne ptr %101, null
  br i1 %102, label %103, label %116

103:                                              ; preds = %95
  %104 = load ptr, ptr %4, align 8, !tbaa !42
  %105 = getelementptr inbounds nuw %struct.PaPulseAudio_Stream, ptr %104, i32 0, i32 10
  %106 = load ptr, ptr %105, align 8, !tbaa !44
  %107 = call i32 @pa_stream_get_state(ptr noundef %106)
  %108 = call i32 @PA_STREAM_IS_GOOD(i32 noundef %107)
  %109 = icmp ne i32 %108, 0
  br i1 %109, label %116, label %110

110:                                              ; preds = %103
  %111 = load ptr, ptr %4, align 8, !tbaa !42
  %112 = getelementptr inbounds nuw %struct.PaPulseAudio_Stream, ptr %111, i32 0, i32 10
  %113 = load ptr, ptr %112, align 8, !tbaa !44
  call void @pa_stream_unref(ptr noundef %113)
  %114 = load ptr, ptr %4, align 8, !tbaa !42
  %115 = getelementptr inbounds nuw %struct.PaPulseAudio_Stream, ptr %114, i32 0, i32 10
  store ptr null, ptr %115, align 8, !tbaa !44
  br label %116

116:                                              ; preds = %110, %103, %95
  %117 = load ptr, ptr %4, align 8, !tbaa !42
  %118 = getelementptr inbounds nuw %struct.PaPulseAudio_Stream, ptr %117, i32 0, i32 5
  %119 = load ptr, ptr %118, align 8, !tbaa !55
  call void @PaPulseAudio_UnLock(ptr noundef %119)
  %120 = load ptr, ptr %4, align 8, !tbaa !42
  %121 = getelementptr inbounds nuw %struct.PaPulseAudio_Stream, ptr %120, i32 0, i32 5
  %122 = load ptr, ptr %121, align 8, !tbaa !55
  call void @PaPulseAudio_Lock(ptr noundef %122)
  %123 = load ptr, ptr %4, align 8, !tbaa !42
  %124 = getelementptr inbounds nuw %struct.PaPulseAudio_Stream, ptr %123, i32 0, i32 9
  %125 = load ptr, ptr %124, align 8, !tbaa !58
  %126 = icmp ne ptr %125, null
  br i1 %126, label %127, label %140

127:                                              ; preds = %116
  %128 = load ptr, ptr %4, align 8, !tbaa !42
  %129 = getelementptr inbounds nuw %struct.PaPulseAudio_Stream, ptr %128, i32 0, i32 9
  %130 = load ptr, ptr %129, align 8, !tbaa !58
  %131 = call i32 @pa_stream_get_state(ptr noundef %130)
  %132 = call i32 @PA_STREAM_IS_GOOD(i32 noundef %131)
  %133 = icmp ne i32 %132, 0
  br i1 %133, label %140, label %134

134:                                              ; preds = %127
  %135 = load ptr, ptr %4, align 8, !tbaa !42
  %136 = getelementptr inbounds nuw %struct.PaPulseAudio_Stream, ptr %135, i32 0, i32 9
  %137 = load ptr, ptr %136, align 8, !tbaa !58
  call void @pa_stream_unref(ptr noundef %137)
  %138 = load ptr, ptr %4, align 8, !tbaa !42
  %139 = getelementptr inbounds nuw %struct.PaPulseAudio_Stream, ptr %138, i32 0, i32 9
  store ptr null, ptr %139, align 8, !tbaa !58
  br label %140

140:                                              ; preds = %134, %127, %116
  %141 = load ptr, ptr %4, align 8, !tbaa !42
  %142 = getelementptr inbounds nuw %struct.PaPulseAudio_Stream, ptr %141, i32 0, i32 5
  %143 = load ptr, ptr %142, align 8, !tbaa !55
  call void @PaPulseAudio_UnLock(ptr noundef %143)
  %144 = load ptr, ptr %4, align 8, !tbaa !42
  %145 = getelementptr inbounds nuw %struct.PaPulseAudio_Stream, ptr %144, i32 0, i32 9
  %146 = load ptr, ptr %145, align 8, !tbaa !58
  %147 = icmp eq ptr %146, null
  br i1 %147, label %148, label %153

148:                                              ; preds = %140
  %149 = load ptr, ptr %4, align 8, !tbaa !42
  %150 = getelementptr inbounds nuw %struct.PaPulseAudio_Stream, ptr %149, i32 0, i32 10
  %151 = load ptr, ptr %150, align 8, !tbaa !44
  %152 = icmp eq ptr %151, null
  br i1 %152, label %156, label %153

153:                                              ; preds = %148, %140
  %154 = load i32, ptr %8, align 4, !tbaa !10
  %155 = icmp sge i32 %154, 5000
  br i1 %155, label %156, label %157

156:                                              ; preds = %153, %148
  store i32 1, ptr %7, align 4, !tbaa !10
  br label %157

157:                                              ; preds = %156, %153
  %158 = load i32, ptr %8, align 4, !tbaa !10
  %159 = add nsw i32 %158, 1
  store i32 %159, ptr %8, align 4, !tbaa !10
  %160 = call i32 @usleep(i32 noundef 10000)
  br label %91, !llvm.loop !71

161:                                              ; preds = %91
  %162 = load ptr, ptr %4, align 8, !tbaa !42
  %163 = getelementptr inbounds nuw %struct.PaPulseAudio_Stream, ptr %162, i32 0, i32 2
  call void @PaUtil_TerminateBufferProcessor(ptr noundef %163)
  %164 = load ptr, ptr %4, align 8, !tbaa !42
  %165 = getelementptr inbounds nuw %struct.PaPulseAudio_Stream, ptr %164, i32 0, i32 0
  call void @PaUtil_TerminateStreamRepresentation(ptr noundef %165)
  %166 = load ptr, ptr %4, align 8, !tbaa !42
  %167 = getelementptr inbounds nuw %struct.PaPulseAudio_Stream, ptr %166, i32 0, i32 24
  %168 = load ptr, ptr %167, align 8, !tbaa !72
  call void @PaUtil_FreeMemory(ptr noundef %168)
  %169 = load ptr, ptr %4, align 8, !tbaa !42
  %170 = getelementptr inbounds nuw %struct.PaPulseAudio_Stream, ptr %169, i32 0, i32 23
  %171 = load ptr, ptr %170, align 8, !tbaa !73
  call void @PaUtil_FreeMemory(ptr noundef %171)
  %172 = load ptr, ptr %4, align 8, !tbaa !42
  call void @PaUtil_FreeMemory(ptr noundef %172)
  %173 = load i32, ptr %3, align 4, !tbaa !10
  call void @llvm.lifetime.end.p0(i64 4, ptr %8) #6
  call void @llvm.lifetime.end.p0(i64 4, ptr %7) #6
  call void @llvm.lifetime.end.p0(i64 8, ptr %6) #6
  call void @llvm.lifetime.end.p0(i64 8, ptr %5) #6
  call void @llvm.lifetime.end.p0(i64 8, ptr %4) #6
  call void @llvm.lifetime.end.p0(i64 4, ptr %3) #6
  ret i32 %173
}