; Function Attrs: nounwind uwtable
define noundef i32 @PaPulseAudio_CloseStreamCb(ptr noundef %0) local_unnamed_addr #0 {
  %2 = alloca ptr, align 8
  %3 = getelementptr inbounds nuw i8, ptr %0, i64 408
  %4 = load ptr, ptr %3, align 8, !tbaa !60
  call void @llvm.lifetime.start.p0(i64 8, ptr nonnull %2) #5
  %5 = getelementptr inbounds nuw i8, ptr %0, i64 648
  store volatile i32 0, ptr %5, align 8, !tbaa !54
  %6 = getelementptr inbounds nuw i8, ptr %0, i64 652
  store volatile i32 1, ptr %6, align 4, !tbaa !57
  %7 = getelementptr inbounds nuw i8, ptr %0, i64 656
  store volatile i32 0, ptr %7, align 8, !tbaa !55
  %8 = getelementptr inbounds nuw i8, ptr %0, i64 660
  store volatile i32 1, ptr %8, align 4, !tbaa !61
  %9 = getelementptr inbounds nuw i8, ptr %0, i64 464
  %10 = load ptr, ptr %9, align 8, !tbaa !49
  %.not = icmp eq ptr %10, null
  br i1 %.not, label %PaPulseAudio_UnLock.exit67, label %11

11:                                               ; preds = %1
  %12 = tail call i32 @pa_stream_get_state(ptr noundef nonnull %10) #5
  %13 = add i32 %12, -3
  %14 = icmp ult i32 %13, -2
  br i1 %14, label %PaPulseAudio_UnLock.exit67, label %15

15:                                               ; preds = %11
  %16 = getelementptr inbounds nuw i8, ptr %0, i64 424
  %17 = load ptr, ptr %16, align 8, !tbaa !46
  %18 = tail call i32 @pa_threaded_mainloop_in_thread(ptr noundef %17) #5
  %.not.i = icmp eq i32 %18, 0
  br i1 %.not.i, label %19, label %PaPulseAudio_Lock.exit

19:                                               ; preds = %15
  tail call void @pa_threaded_mainloop_lock(ptr noundef %17) #5
  br label %PaPulseAudio_Lock.exit

PaPulseAudio_Lock.exit:                           ; preds = %15, %19
  %20 = load ptr, ptr %9, align 8, !tbaa !49
  %21 = tail call ptr @pa_stream_cork(ptr noundef %20, i32 noundef 1, ptr noundef nonnull @PaPulseAudio_CorkSuccessCb, ptr noundef nonnull %0) #5
  store ptr %21, ptr %2, align 8, !tbaa !14
  %22 = load ptr, ptr %16, align 8, !tbaa !46
  %23 = tail call i32 @pa_threaded_mainloop_in_thread(ptr noundef %22) #5
  %.not.i63 = icmp eq i32 %23, 0
  br i1 %.not.i63, label %24, label %PaPulseAudio_UnLock.exit

24:                                               ; preds = %PaPulseAudio_Lock.exit
  tail call void @pa_threaded_mainloop_unlock(ptr noundef %22) #5
  br label %PaPulseAudio_UnLock.exit

PaPulseAudio_UnLock.exit:                         ; preds = %PaPulseAudio_Lock.exit, %24
  call void @PaPulseAudio_ReleaseOperation(ptr noundef %4, ptr noundef nonnull %2)
  %25 = load ptr, ptr %16, align 8, !tbaa !46
  %26 = tail call i32 @pa_threaded_mainloop_in_thread(ptr noundef %25) #5
  %.not.i64 = icmp eq i32 %26, 0
  br i1 %.not.i64, label %27, label %PaPulseAudio_Lock.exit65

27:                                               ; preds = %PaPulseAudio_UnLock.exit
  tail call void @pa_threaded_mainloop_lock(ptr noundef %25) #5
  br label %PaPulseAudio_Lock.exit65

PaPulseAudio_Lock.exit65:                         ; preds = %PaPulseAudio_UnLock.exit, %27
  %28 = load ptr, ptr %9, align 8, !tbaa !49
  %29 = tail call i32 @pa_stream_disconnect(ptr noundef %28) #5
  %30 = load ptr, ptr %16, align 8, !tbaa !46
  %31 = tail call i32 @pa_threaded_mainloop_in_thread(ptr noundef %30) #5
  %.not.i66 = icmp eq i32 %31, 0
  br i1 %.not.i66, label %32, label %PaPulseAudio_UnLock.exit67

32:                                               ; preds = %PaPulseAudio_Lock.exit65
  tail call void @pa_threaded_mainloop_unlock(ptr noundef %30) #5
  br label %PaPulseAudio_UnLock.exit67

PaPulseAudio_UnLock.exit67:                       ; preds = %32, %PaPulseAudio_Lock.exit65, %11, %1
  %33 = getelementptr inbounds nuw i8, ptr %0, i64 472
  %34 = load ptr, ptr %33, align 8, !tbaa !33
  %.not56 = icmp eq ptr %34, null
  br i1 %.not56, label %PaPulseAudio_UnLock.exit75, label %35

35:                                               ; preds = %PaPulseAudio_UnLock.exit67
  %36 = tail call i32 @pa_stream_get_state(ptr noundef nonnull %34) #5
  %37 = add i32 %36, -3
  %38 = icmp ult i32 %37, -2
  br i1 %38, label %PaPulseAudio_UnLock.exit75, label %39

39:                                               ; preds = %35
  %40 = getelementptr inbounds nuw i8, ptr %0, i64 424
  %41 = load ptr, ptr %40, align 8, !tbaa !46
  %42 = tail call i32 @pa_threaded_mainloop_in_thread(ptr noundef %41) #5
  %.not.i68 = icmp eq i32 %42, 0
  br i1 %.not.i68, label %43, label %PaPulseAudio_Lock.exit69

43:                                               ; preds = %39
  tail call void @pa_threaded_mainloop_lock(ptr noundef %41) #5
  br label %PaPulseAudio_Lock.exit69

PaPulseAudio_Lock.exit69:                         ; preds = %39, %43
  %44 = load ptr, ptr %33, align 8, !tbaa !33
  %45 = tail call ptr @pa_stream_cork(ptr noundef %44, i32 noundef 1, ptr noundef nonnull @PaPulseAudio_CorkSuccessCb, ptr noundef nonnull %0) #5
  store ptr %45, ptr %2, align 8, !tbaa !14
  %46 = load ptr, ptr %40, align 8, !tbaa !46
  %47 = tail call i32 @pa_threaded_mainloop_in_thread(ptr noundef %46) #5
  %.not.i70 = icmp eq i32 %47, 0
  br i1 %.not.i70, label %48, label %PaPulseAudio_UnLock.exit71

48:                                               ; preds = %PaPulseAudio_Lock.exit69
  tail call void @pa_threaded_mainloop_unlock(ptr noundef %46) #5
  br label %PaPulseAudio_UnLock.exit71

PaPulseAudio_UnLock.exit71:                       ; preds = %PaPulseAudio_Lock.exit69, %48
  call void @PaPulseAudio_ReleaseOperation(ptr noundef %4, ptr noundef nonnull %2)
  %49 = load ptr, ptr %40, align 8, !tbaa !46
  %50 = tail call i32 @pa_threaded_mainloop_in_thread(ptr noundef %49) #5
  %.not.i72 = icmp eq i32 %50, 0
  br i1 %.not.i72, label %51, label %PaPulseAudio_Lock.exit73

51:                                               ; preds = %PaPulseAudio_UnLock.exit71
  tail call void @pa_threaded_mainloop_lock(ptr noundef %49) #5
  br label %PaPulseAudio_Lock.exit73

PaPulseAudio_Lock.exit73:                         ; preds = %PaPulseAudio_UnLock.exit71, %51
  %52 = load ptr, ptr %33, align 8, !tbaa !33
  %53 = tail call i32 @pa_stream_disconnect(ptr noundef %52) #5
  %54 = load ptr, ptr %40, align 8, !tbaa !46
  %55 = tail call i32 @pa_threaded_mainloop_in_thread(ptr noundef %54) #5
  %.not.i74 = icmp eq i32 %55, 0
  br i1 %.not.i74, label %56, label %PaPulseAudio_UnLock.exit75

56:                                               ; preds = %PaPulseAudio_Lock.exit73
  tail call void @pa_threaded_mainloop_unlock(ptr noundef %54) #5
  br label %PaPulseAudio_UnLock.exit75

PaPulseAudio_UnLock.exit75:                       ; preds = %56, %PaPulseAudio_Lock.exit73, %35, %PaPulseAudio_UnLock.exit67
  %57 = getelementptr inbounds nuw i8, ptr %0, i64 424
  br label %58

58:                                               ; preds = %94, %PaPulseAudio_UnLock.exit75
  %.084 = phi i32 [ 0, %PaPulseAudio_UnLock.exit75 ], [ %95, %94 ]
  %59 = load ptr, ptr %57, align 8, !tbaa !46
  %60 = tail call i32 @pa_threaded_mainloop_in_thread(ptr noundef %59) #5
  %.not.i76 = icmp eq i32 %60, 0
  br i1 %.not.i76, label %61, label %PaPulseAudio_Lock.exit77

61:                                               ; preds = %58
  tail call void @pa_threaded_mainloop_lock(ptr noundef %59) #5
  br label %PaPulseAudio_Lock.exit77

PaPulseAudio_Lock.exit77:                         ; preds = %58, %61
  %62 = load ptr, ptr %33, align 8, !tbaa !33
  %.not59 = icmp eq ptr %62, null
  br i1 %.not59, label %69, label %63

63:                                               ; preds = %PaPulseAudio_Lock.exit77
  %64 = tail call i32 @pa_stream_get_state(ptr noundef nonnull %62) #5
  %65 = add i32 %64, -3
  %66 = icmp ult i32 %65, -2
  br i1 %66, label %67, label %69

67:                                               ; preds = %63
  %68 = load ptr, ptr %33, align 8, !tbaa !33
  tail call void @pa_stream_unref(ptr noundef %68) #5
  store ptr null, ptr %33, align 8, !tbaa !33
  br label %69

69:                                               ; preds = %67, %63, %PaPulseAudio_Lock.exit77
  %70 = load ptr, ptr %57, align 8, !tbaa !46
  %71 = tail call i32 @pa_threaded_mainloop_in_thread(ptr noundef %70) #5
  %.not.i78 = icmp eq i32 %71, 0
  br i1 %.not.i78, label %72, label %PaPulseAudio_UnLock.exit79

72:                                               ; preds = %69
  tail call void @pa_threaded_mainloop_unlock(ptr noundef %70) #5
  br label %PaPulseAudio_UnLock.exit79

PaPulseAudio_UnLock.exit79:                       ; preds = %69, %72
  %73 = load ptr, ptr %57, align 8, !tbaa !46
  %74 = tail call i32 @pa_threaded_mainloop_in_thread(ptr noundef %73) #5
  %.not.i80 = icmp eq i32 %74, 0
  br i1 %.not.i80, label %75, label %PaPulseAudio_Lock.exit81

75:                                               ; preds = %PaPulseAudio_UnLock.exit79
  tail call void @pa_threaded_mainloop_lock(ptr noundef %73) #5
  br label %PaPulseAudio_Lock.exit81

PaPulseAudio_Lock.exit81:                         ; preds = %PaPulseAudio_UnLock.exit79, %75
  %76 = load ptr, ptr %9, align 8, !tbaa !49
  %.not61 = icmp eq ptr %76, null
  br i1 %.not61, label %83, label %77

77:                                               ; preds = %PaPulseAudio_Lock.exit81
  %78 = tail call i32 @pa_stream_get_state(ptr noundef nonnull %76) #5
  %79 = add i32 %78, -3
  %80 = icmp ult i32 %79, -2
  br i1 %80, label %81, label %83

81:                                               ; preds = %77
  %82 = load ptr, ptr %9, align 8, !tbaa !49
  tail call void @pa_stream_unref(ptr noundef %82) #5
  store ptr null, ptr %9, align 8, !tbaa !49
  br label %83

83:                                               ; preds = %81, %77, %PaPulseAudio_Lock.exit81
  %84 = load ptr, ptr %57, align 8, !tbaa !46
  %85 = tail call i32 @pa_threaded_mainloop_in_thread(ptr noundef %84) #5
  %.not.i82 = icmp eq i32 %85, 0
  br i1 %.not.i82, label %86, label %PaPulseAudio_UnLock.exit83

86:                                               ; preds = %83
  tail call void @pa_threaded_mainloop_unlock(ptr noundef %84) #5
  br label %PaPulseAudio_UnLock.exit83

PaPulseAudio_UnLock.exit83:                       ; preds = %83, %86
  %87 = load ptr, ptr %9, align 8, !tbaa !49
  %88 = icmp eq ptr %87, null
  br i1 %88, label %89, label %93

89:                                               ; preds = %PaPulseAudio_UnLock.exit83
  %90 = load ptr, ptr %33, align 8, !tbaa !33
  %91 = icmp eq ptr %90, null
  %92 = icmp samesign ugt i32 %.084, 4999
  %or.cond = select i1 %91, i1 true, i1 %92
  br i1 %or.cond, label %97, label %94

93:                                               ; preds = %PaPulseAudio_UnLock.exit83
  %.old1 = icmp samesign ugt i32 %.084, 4999
  br i1 %.old1, label %97, label %94

94:                                               ; preds = %89, %93
  %95 = add nuw nsw i32 %.084, 1
  %96 = tail call i32 @usleep(i32 noundef 10000) #5
  br label %58, !llvm.loop !62

97:                                               ; preds = %89, %93
  %98 = tail call i32 @usleep(i32 noundef 10000) #5
  %99 = getelementptr inbounds nuw i8, ptr %0, i64 104
  tail call void @PaUtil_TerminateBufferProcessor(ptr noundef nonnull %99) #5
  tail call void @PaUtil_TerminateStreamRepresentation(ptr noundef nonnull %0) #5
  %100 = getelementptr inbounds nuw i8, ptr %0, i64 576
  %101 = load ptr, ptr %100, align 8, !tbaa !63
  tail call void @PaUtil_FreeMemory(ptr noundef %101) #5
  %102 = getelementptr inbounds nuw i8, ptr %0, i64 568
  %103 = load ptr, ptr %102, align 8, !tbaa !64
  tail call void @PaUtil_FreeMemory(ptr noundef %103) #5
  tail call void @PaUtil_FreeMemory(ptr noundef nonnull %0) #5
  call void @llvm.lifetime.end.p0(i64 8, ptr nonnull %2) #5
  ret i32 0
}